target datalayout = "e-m:e-p270:32:32-p271:32:32-p272:64:64-i64:64-i128:128-f80:128-n8:16:32:64-S128"
target triple = "x86_64-pc-linux-gnu"

%struct.Abc_Frame_t_ = type { ptr, ptr, ptr, ptr, ptr, ptr, ptr, ptr, ptr, ptr, i32, i32, i32, i32, i32, ptr, float, float, i32, i32, ptr, ptr, ptr, double, double, ptr, ptr, ptr, ptr, ptr, ptr, ptr, ptr, ptr, ptr, ptr, ptr, float, ptr, i32, ptr, ptr, ptr, ptr, ptr, i32, i32, i32, i32, i32, i32, ptr, ptr, ptr, ptr, ptr, ptr, i32, i32, ptr, ptr, ptr, ptr, ptr, ptr, ptr, ptr, ptr, ptr, ptr, ptr, ptr, ptr, ptr, ptr, ptr, ptr, ptr, ptr, ptr, ptr, ptr, ptr, ptr, ptr, ptr, ptr, ptr, ptr }

@.str.23 = private unnamed_addr constant [6 x i8] c"opivh\00", align 1
@globalUtilOptind = external global i32, align 4
@.str.24 = private unnamed_addr constant [76 x i8] c"Abc_CommandReadWlc(): Input file name should be given on the command line.\0A\00", align 1
@.str.25 = private unnamed_addr constant [2 x i8] c"r\00", align 1
@.str.26 = private unnamed_addr constant [30 x i8] c"Cannot open input file \22%s\22. \00", align 1
@.str.27 = private unnamed_addr constant [3 x i8] c".v\00", align 1
@.str.28 = private unnamed_addr constant [5 x i8] c".smt\00", align 1
@.str.29 = private unnamed_addr constant [6 x i8] c".smt2\00", align 1
@.str.30 = private unnamed_addr constant [5 x i8] c".ndr\00", align 1
@.str.31 = private unnamed_addr constant [19 x i8] c"Did you mean \22%s\22?\00", align 1
@.str.32 = private unnamed_addr constant [2 x i8] c"\0A\00", align 1
@.str.33 = private unnamed_addr constant [2 x i8] c"v\00", align 1
@.str.34 = private unnamed_addr constant [4 x i8] c"smt\00", align 1
@.str.35 = private unnamed_addr constant [5 x i8] c"smt2\00", align 1
@.str.36 = private unnamed_addr constant [4 x i8] c"ndr\00", align 1
@.str.37 = private unnamed_addr constant [47 x i8] c"Abc_CommandReadWlc(): Unknown file extension.\0A\00", align 1
@.str.38 = private unnamed_addr constant [36 x i8] c"usage: %%read [-opivh] <file_name>\0A\00", align 1
@.str.39 = private unnamed_addr constant [53 x i8] c"\09         reads word-level design from Verilog file\0A\00", align 1
@.str.40 = private unnamed_addr constant [58 x i8] c"\09-o     : toggle using old SMT-LIB parser [default = %s]\0A\00", align 1
@.str.41 = private unnamed_addr constant [4 x i8] c"yes\00", align 1
@.str.42 = private unnamed_addr constant [3 x i8] c"no\00", align 1
@.str.43 = private unnamed_addr constant [61 x i8] c"\09-p     : toggle printing parse SMT-LIB tree [default = %s]\0A\00", align 1
@.str.44 = private unnamed_addr constant [56 x i8] c"\09-i     : toggle reading interface only [default = %s]\0A\00", align 1
@.str.45 = private unnamed_addr constant [62 x i8] c"\09-v     : toggle printing verbose information [default = %s]\0A\00", align 1
@.str.46 = private unnamed_addr constant [35 x i8] c"\09-h     : print the command usage\0A\00", align 1

; Function Attrs: inlinehint nounwind uwtable
define internal ptr @Wlc_AbcGetNtk(ptr noundef %0) #2 {
  %2 = alloca ptr, align 8
  store ptr %0, ptr %2, align 8, !tbaa !3
  %3 = load ptr, ptr %2, align 8, !tbaa !3
  %4 = getelementptr inbounds nuw %struct.Abc_Frame_t_, ptr %3, i32 0, i32 71
  %5 = load ptr, ptr %4, align 8, !tbaa !132
  ret ptr %5
}

; Function Attrs: inlinehint nounwind uwtable
define internal void @Wlc_AbcFreeNtk(ptr noundef %0) #2 {
  %2 = alloca ptr, align 8
  store ptr %0, ptr %2, align 8, !tbaa !3
  %3 = load ptr, ptr %2, align 8, !tbaa !3
  %4 = getelementptr inbounds nuw %struct.Abc_Frame_t_, ptr %3, i32 0, i32 71
  %5 = load ptr, ptr %4, align 8, !tbaa !132
  %6 = icmp ne ptr %5, null
  br i1 %6, label %7, label %10

7:                                                ; preds = %1
  %8 = load ptr, ptr %2, align 8, !tbaa !3
  %9 = call ptr @Wlc_AbcGetNtk(ptr noundef %8)
  call void @Wlc_NtkFree(ptr noundef %9)
  br label %10

10:                                               ; preds = %7, %1
  ret void
}

; Function Attrs: inlinehint nounwind uwtable
define internal void @Wlc_AbcUpdateNtk(ptr noundef %0, ptr noundef %1) #2 {
  %3 = alloca ptr, align 8
  %4 = alloca ptr, align 8
  store ptr %0, ptr %3, align 8, !tbaa !3
  store ptr %1, ptr %4, align 8, !tbaa !12
  %5 = load ptr, ptr %3, align 8, !tbaa !3
  call void @Wlc_AbcFreeNtk(ptr noundef %5)
  %6 = load ptr, ptr %4, align 8, !tbaa !12
  %7 = load ptr, ptr %3, align 8, !tbaa !3
  %8 = getelementptr inbounds nuw %struct.Abc_Frame_t_, ptr %7, i32 0, i32 71
  store ptr %6, ptr %8, align 8, !tbaa !132
  ret void
}

; Function Attrs: nounwind uwtable
define internal i32 @Abc_CommandReadWlc(ptr noundef %0, i32 noundef %1, ptr noundef %2) #0 {
  %4 = alloca i32, align 4
  %5 = alloca ptr, align 8
  %6 = alloca i32, align 4
  %7 = alloca ptr, align 8
  %8 = alloca ptr, align 8
  %9 = alloca ptr, align 8
  %10 = alloca ptr, align 8
  %11 = alloca i32, align 4
  %12 = alloca i32, align 4
  %13 = alloca i32, align 4
  %14 = alloca i32, align 4
  %15 = alloca i32, align 4
  %16 = alloca i32, align 4
  store ptr %0, ptr %5, align 8, !tbaa !3
  store i32 %1, ptr %6, align 4, !tbaa !8
  store ptr %2, ptr %7, align 8, !tbaa !10
  call void @llvm.lifetime.start.p0(i64 8, ptr %8) #12
  call void @llvm.lifetime.start.p0(i64 8, ptr %9) #12
  store ptr null, ptr %9, align 8, !tbaa !12
  call void @llvm.lifetime.start.p0(i64 8, ptr %10) #12
  store ptr null, ptr %10, align 8, !tbaa !14
  call void @llvm.lifetime.start.p0(i64 4, ptr %11) #12
  store i32 0, ptr %11, align 4, !tbaa !8
  call void @llvm.lifetime.start.p0(i64 4, ptr %12) #12
  store i32 0, ptr %12, align 4, !tbaa !8
  call void @llvm.lifetime.start.p0(i64 4, ptr %13) #12
  store i32 0, ptr %13, align 4, !tbaa !8
  call void @llvm.lifetime.start.p0(i64 4, ptr %14) #12
  call void @llvm.lifetime.start.p0(i64 4, ptr %15) #12
  store i32 0, ptr %15, align 4, !tbaa !8
  call void (...) @Extra_UtilGetoptReset()
  br label %17

17:                                               ; preds = %38, %3
  %18 = load i32, ptr %6, align 4, !tbaa !8
  %19 = load ptr, ptr %7, align 8, !tbaa !10
  %20 = call i32 @Extra_UtilGetopt(i32 noundef %18, ptr noundef %19, ptr noundef @.str.23)
  store i32 %20, ptr %14, align 4, !tbaa !8
  %21 = icmp ne i32 %20, -1
  br i1 %21, label %22, label %39

22:                                               ; preds = %17
  %23 = load i32, ptr %14, align 4, !tbaa !8
  switch i32 %23, label %37 [
    i32 111, label %24
    i32 112, label %27
    i32 105, label %30
    i32 118, label %33
    i32 104, label %36
  ]

24:                                               ; preds = %22
  %25 = load i32, ptr %11, align 4, !tbaa !8
  %26 = xor i32 %25, 1
  store i32 %26, ptr %11, align 4, !tbaa !8
  br label %38

27:                                               ; preds = %22
  %28 = load i32, ptr %12, align 4, !tbaa !8
  %29 = xor i32 %28, 1
  store i32 %29, ptr %12, align 4, !tbaa !8
  br label %38

30:                                               ; preds = %22
  %31 = load i32, ptr %13, align 4, !tbaa !8
  %32 = xor i32 %31, 1
  store i32 %32, ptr %13, align 4, !tbaa !8
  br label %38

33:                                               ; preds = %22
  %34 = load i32, ptr %15, align 4, !tbaa !8
  %35 = xor i32 %34, 1
  store i32 %35, ptr %15, align 4, !tbaa !8
  br label %38

36:                                               ; preds = %22
  br label %117

37:                                               ; preds = %22
  br label %117

38:                                               ; preds = %33, %30, %27, %24
  br label %17, !llvm.loop !16

39:                                               ; preds = %17
  %40 = load i32, ptr %6, align 4, !tbaa !8
  %41 = load i32, ptr @globalUtilOptind, align 4, !tbaa !8
  %42 = add nsw i32 %41, 1
  %43 = icmp ne i32 %40, %42
  br i1 %43, label %44, label %46

44:                                               ; preds = %39
  %45 = call i32 (ptr, ...) @printf(ptr noundef @.str.24)
  store i32 0, ptr %4, align 4
  store i32 1, ptr %16, align 4
  br label %130

46:                                               ; preds = %39
  %47 = load ptr, ptr %7, align 8, !tbaa !10
  %48 = load i32, ptr @globalUtilOptind, align 4, !tbaa !8
  %49 = sext i32 %48 to i64
  %50 = getelementptr inbounds ptr, ptr %47, i64 %49
  %51 = load ptr, ptr %50, align 8, !tbaa !14
  store ptr %51, ptr %10, align 8, !tbaa !14
  %52 = load ptr, ptr %10, align 8, !tbaa !14
  %53 = call noalias ptr @fopen(ptr noundef %52, ptr noundef @.str.25)
  store ptr %53, ptr %8, align 8, !tbaa !18
  %54 = icmp eq ptr %53, null
  br i1 %54, label %55, label %63

55:                                               ; preds = %46
  %56 = load ptr, ptr %10, align 8, !tbaa !14
  call void (i32, ptr, ...) @Abc_Print(i32 noundef 1, ptr noundef @.str.26, ptr noundef %56)
  %57 = load ptr, ptr %10, align 8, !tbaa !14
  %58 = call ptr @Extra_FileGetSimilarName(ptr noundef %57, ptr noundef @.str.27, ptr noundef @.str.28, ptr noundef @.str.29, ptr noundef @.str.30, ptr noundef null)
  store ptr %58, ptr %10, align 8, !tbaa !14
  %59 = icmp ne ptr %58, null
  br i1 %59, label %60, label %62

60:                                               ; preds = %55
  %61 = load ptr, ptr %10, align 8, !tbaa !14
  call void (i32, ptr, ...) @Abc_Print(i32 noundef 1, ptr noundef @.str.31, ptr noundef %61)
  br label %62

62:                                               ; preds = %60, %55
  call void (i32, ptr, ...) @Abc_Print(i32 noundef 1, ptr noundef @.str.32)
  store i32 0, ptr %4, align 4
  store i32 1, ptr %16, align 4
  br label %130

63:                                               ; preds = %46
  %64 = load ptr, ptr %8, align 8, !tbaa !18
  %65 = call i32 @fclose(ptr noundef %64)
  %66 = load ptr, ptr %10, align 8, !tbaa !14
  %67 = call ptr @Extra_FileNameExtension(ptr noundef %66)
  %68 = call i32 @strcmp(ptr noundef %67, ptr noundef @.str.33) #13
  %69 = icmp ne i32 %68, 0
  br i1 %69, label %87, label %70

70:                                               ; preds = %63
  %71 = load ptr, ptr %10, align 8, !tbaa !14
  %72 = load i32, ptr %13, align 4, !tbaa !8
  %73 = call ptr @Wlc_ReadVer(ptr noundef %71, ptr noundef null, i32 noundef %72)
  store ptr %73, ptr %9, align 8, !tbaa !12
  %74 = load i32, ptr %13, align 4, !tbaa !8
  %75 = icmp ne i32 %74, 0
  br i1 %75, label %76, label %86

76:                                               ; preds = %70
  %77 = load ptr, ptr %5, align 8, !tbaa !3
  %78 = getelementptr inbounds nuw %struct.Abc_Frame_t_, ptr %77, i32 0, i32 40
  %79 = load ptr, ptr %78, align 8, !tbaa !20
  %80 = icmp ne ptr %79, null
  br i1 %80, label %81, label %86

81:                                               ; preds = %76
  %82 = load ptr, ptr %9, align 8, !tbaa !12
  %83 = load ptr, ptr %5, align 8, !tbaa !3
  %84 = getelementptr inbounds nuw %struct.Abc_Frame_t_, ptr %83, i32 0, i32 40
  %85 = load ptr, ptr %84, align 8, !tbaa !20
  call void @Wlc_TransferPioNames(ptr noundef %82, ptr noundef %85)
  br label %86

86:                                               ; preds = %81, %76, %70
  br label %114

87:                                               ; preds = %63
  %88 = load ptr, ptr %10, align 8, !tbaa !14
  %89 = call ptr @Extra_FileNameExtension(ptr noundef %88)
  %90 = call i32 @strcmp(ptr noundef %89, ptr noundef @.str.34) #13
  %91 = icmp ne i32 %90, 0
  br i1 %91, label %92, label %97

92:                                               ; preds = %87
  %93 = load ptr, ptr %10, align 8, !tbaa !14
  %94 = call ptr @Extra_FileNameExtension(ptr noundef %93)
  %95 = call i32 @strcmp(ptr noundef %94, ptr noundef @.str.35) #13
  %96 = icmp ne i32 %95, 0
  br i1 %96, label %102, label %97

97:                                               ; preds = %92, %87
  %98 = load ptr, ptr %10, align 8, !tbaa !14
  %99 = load i32, ptr %11, align 4, !tbaa !8
  %100 = load i32, ptr %12, align 4, !tbaa !8
  %101 = call ptr @Wlc_ReadSmt(ptr noundef %98, i32 noundef %99, i32 noundef %100)
  store ptr %101, ptr %9, align 8, !tbaa !12
  br label %113

102:                                              ; preds = %92
  %103 = load ptr, ptr %10, align 8, !tbaa !14
  %104 = call ptr @Extra_FileNameExtension(ptr noundef %103)
  %105 = call i32 @strcmp(ptr noundef %104, ptr noundef @.str.36) #13
  %106 = icmp ne i32 %105, 0
  br i1 %106, label %110, label %107

107:                                              ; preds = %102
  %108 = load ptr, ptr %10, align 8, !tbaa !14
  %109 = call ptr @Wlc_ReadNdr(ptr noundef %108)
  store ptr %109, ptr %9, align 8, !tbaa !12
  br label %112

110:                                              ; preds = %102
  %111 = call i32 (ptr, ...) @printf(ptr noundef @.str.37)
  store i32 0, ptr %4, align 4
  store i32 1, ptr %16, align 4
  br label %130

112:                                              ; preds = %107
  br label %113

113:                                              ; preds = %112, %97
  br label %114

114:                                              ; preds = %113, %86
  %115 = load ptr, ptr %5, align 8, !tbaa !3
  %116 = load ptr, ptr %9, align 8, !tbaa !12
  call void @Wlc_AbcUpdateNtk(ptr noundef %115, ptr noundef %116)
  store i32 0, ptr %4, align 4
  store i32 1, ptr %16, align 4
  br label %130

117:                                              ; preds = %37, %36
  call void (i32, ptr, ...) @Abc_Print(i32 noundef -2, ptr noundef @.str.38)
  call void (i32, ptr, ...) @Abc_Print(i32 noundef -2, ptr noundef @.str.39)
  %118 = load i32, ptr %11, align 4, !tbaa !8
  %119 = icmp ne i32 %118, 0
  %120 = select i1 %119, ptr @.str.41, ptr @.str.42
  call void (i32, ptr, ...) @Abc_Print(i32 noundef -2, ptr noundef @.str.40, ptr noundef %120)
  %121 = load i32, ptr %12, align 4, !tbaa !8
  %122 = icmp ne i32 %121, 0
  %123 = select i1 %122, ptr @.str.41, ptr @.str.42
  call void (i32, ptr, ...) @Abc_Print(i32 noundef -2, ptr noundef @.str.43, ptr noundef %123)
  %124 = load i32, ptr %13, align 4, !tbaa !8
  %125 = icmp ne i32 %124, 0
  %126 = select i1 %125, ptr @.str.41, ptr @.str.42
  call void (i32, ptr, ...) @Abc_Print(i32 noundef -2, ptr noundef @.str.44, ptr noundef %126)
  %127 = load i32, ptr %15, align 4, !tbaa !8
  %128 = icmp ne i32 %127, 0
  %129 = select i1 %128, ptr @.str.41, ptr @.str.42
  call void (i32, ptr, ...) @Abc_Print(i32 noundef -2, ptr noundef @.str.45, ptr noundef %129)
  call void (i32, ptr, ...) @Abc_Print(i32 noundef -2, ptr noundef @.str.46)
  store i32 1, ptr %4, align 4
  store i32 1, ptr %16, align 4
  br label %130

130:                                              ; preds = %117, %114, %110, %62, %44
  call void @llvm.lifetime.end.p0(i64 4, ptr %15) #12
  call void @llvm.lifetime.end.p0(i64 4, ptr %14) #12
  call void @llvm.lifetime.end.p0(i64 4, ptr %13) #12
  call void @llvm.lifetime.end.p0(i64 4, ptr %12) #12
  call void @llvm.lifetime.end.p0(i64 4, ptr %11) #12
  call void @llvm.lifetime.end.p0(i64 8, ptr %10) #12
  call void @llvm.lifetime.end.p0(i64 8, ptr %9) #12
  call void @llvm.lifetime.end.p0(i64 8, ptr %8) #12
  %131 = load i32, ptr %4, align 4
  ret i32 %131
}