; Function Attrs: nounwind uwtable
define internal range(i32 0, 2) i32 @Abc_CommandReadWlc(ptr noundef captures(none) %0, i32 noundef %1, ptr noundef %2) #0 {
  tail call void (...) @Extra_UtilGetoptReset() #17
  br label %.outer

.outer:                                           ; preds = %6, %3
  %.039.ph = phi i32 [ %7, %6 ], [ 0, %3 ]
  %.037.ph = phi i32 [ %.037.ph77, %6 ], [ 0, %3 ]
  %.035.ph = phi i32 [ %.035.ph81, %6 ], [ 0, %3 ]
  %.0.ph = phi i32 [ %.0, %6 ], [ 0, %3 ]
  br label %.outer76

.outer76:                                         ; preds = %.outer, %8
  %.037.ph77 = phi i32 [ %.037.ph, %.outer ], [ %9, %8 ]
  %.035.ph78 = phi i32 [ %.035.ph, %.outer ], [ %.035.ph81, %8 ]
  %.0.ph79 = phi i32 [ %.0.ph, %.outer ], [ %.0, %8 ]
  br label %.outer80

.outer80:                                         ; preds = %.outer76, %10
  %.035.ph81 = phi i32 [ %.035.ph78, %.outer76 ], [ %11, %10 ]
  %.0.ph82 = phi i32 [ %.0.ph79, %.outer76 ], [ %.0, %10 ]
  br label %4

4:                                                ; preds = %.outer80, %12
  %.0 = phi i32 [ %13, %12 ], [ %.0.ph82, %.outer80 ]
  %5 = tail call i32 @Extra_UtilGetopt(i32 noundef %1, ptr noundef %2, ptr noundef nonnull @.str.23) #17
  switch i32 %5, label %56 [
    i32 -1, label %14
    i32 111, label %6
    i32 112, label %8
    i32 105, label %10
    i32 118, label %12
  ]

6:                                                ; preds = %4
  %7 = xor i32 %.039.ph, 1
  br label %.outer, !llvm.loop !3

8:                                                ; preds = %4
  %9 = xor i32 %.037.ph77, 1
  br label %.outer76, !llvm.loop !3

10:                                               ; preds = %4
  %11 = xor i32 %.035.ph81, 1
  br label %.outer80, !llvm.loop !3

12:                                               ; preds = %4
  %13 = xor i32 %.0, 1
  br label %4, !llvm.loop !3

14:                                               ; preds = %4
  %15 = load i32, ptr @globalUtilOptind, align 4, !tbaa !5
  %16 = add nsw i32 %15, 1
  %.not46 = icmp eq i32 %1, %16
  br i1 %.not46, label %18, label %17

17:                                               ; preds = %14
  %puts54 = tail call i32 @puts(ptr nonnull dereferenceable(1) @str.1)
  br label %61

18:                                               ; preds = %14
  %19 = sext i32 %15 to i64
  %20 = getelementptr inbounds ptr, ptr %2, i64 %19
  %21 = load ptr, ptr %20, align 8, !tbaa !9
  %22 = tail call noalias ptr @fopen(ptr noundef %21, ptr noundef nonnull @.str.25)
  %23 = icmp eq ptr %22, null
  br i1 %23, label %24, label %sub_0

24:                                               ; preds = %18
  tail call void (i32, ptr, ...) @Abc_Print(i32 noundef 1, ptr noundef nonnull @.str.26, ptr noundef %21)
  %25 = tail call ptr @Extra_FileGetSimilarName(ptr noundef %21, ptr noundef nonnull @.str.27, ptr noundef nonnull @.str.28, ptr noundef nonnull @.str.29, ptr noundef nonnull @.str.30, ptr noundef null) #17
  %.not53 = icmp eq ptr %25, null
  br i1 %.not53, label %27, label %26

26:                                               ; preds = %24
  tail call void (i32, ptr, ...) @Abc_Print(i32 noundef 1, ptr noundef nonnull @.str.31, ptr noundef nonnull %25)
  br label %27

27:                                               ; preds = %26, %24
  tail call void (i32, ptr, ...) @Abc_Print(i32 noundef 1, ptr noundef nonnull @.str.32)
  br label %61

sub_0:                                            ; preds = %18
  %28 = tail call i32 @fclose(ptr noundef nonnull %22)
  %29 = tail call ptr @Extra_FileNameExtension(ptr noundef %21) #17
  %30 = load i8, ptr %29, align 1
  %.not = icmp eq i8 %30, 118
  br i1 %.not, label %.tail, label %.tail.thread

.tail:                                            ; preds = %sub_0
  %31 = getelementptr inbounds nuw i8, ptr %29, i64 1
  %32 = load i8, ptr %31, align 1
  %33 = icmp eq i8 %32, 0
  br i1 %33, label %34, label %.tail.thread

34:                                               ; preds = %.tail
  %35 = tail call ptr @Wlc_ReadVer(ptr noundef %21, ptr noundef null, i32 noundef %.035.ph81) #17
  %.not48 = icmp eq i32 %.035.ph81, 0
  br i1 %.not48, label %53, label %36

36:                                               ; preds = %34
  %37 = getelementptr inbounds nuw i8, ptr %0, i64 288
  %38 = load ptr, ptr %37, align 8, !tbaa !12
  %.not49 = icmp eq ptr %38, null
  br i1 %.not49, label %53, label %39

39:                                               ; preds = %36
  tail call void @Wlc_TransferPioNames(ptr noundef %35, ptr noundef nonnull %38) #17
  br label %53

.tail.thread:                                     ; preds = %sub_0, %.tail
  %40 = tail call ptr @Extra_FileNameExtension(ptr noundef %21) #17
  %41 = tail call i32 @strcmp(ptr noundef nonnull dereferenceable(1) %40, ptr noundef nonnull dereferenceable(4) @.str.34) #18
  %.not50 = icmp eq i32 %41, 0
  br i1 %.not50, label %45, label %42

42:                                               ; preds = %.tail.thread
  %43 = tail call ptr @Extra_FileNameExtension(ptr noundef %21) #17
  %44 = tail call i32 @strcmp(ptr noundef nonnull dereferenceable(1) %43, ptr noundef nonnull dereferenceable(5) @.str.35) #18
  %.not51 = icmp eq i32 %44, 0
  br i1 %.not51, label %45, label %47

45:                                               ; preds = %42, %.tail.thread
  %46 = tail call ptr @Wlc_ReadSmt(ptr noundef %21, i32 noundef %.039.ph, i32 noundef %.037.ph77) #17
  br label %53

47:                                               ; preds = %42
  %48 = tail call ptr @Extra_FileNameExtension(ptr noundef %21) #17
  %49 = tail call i32 @strcmp(ptr noundef nonnull dereferenceable(1) %48, ptr noundef nonnull dereferenceable(4) @.str.36) #18
  %.not52 = icmp eq i32 %49, 0
  br i1 %.not52, label %50, label %52

50:                                               ; preds = %47
  %51 = tail call ptr @Wlc_ReadNdr(ptr noundef %21) #17
  br label %53

52:                                               ; preds = %47
  %puts = tail call i32 @puts(ptr nonnull dereferenceable(1) @str)
  br label %61

53:                                               ; preds = %45, %50, %34, %36, %39
  %.041 = phi ptr [ %51, %50 ], [ %46, %45 ], [ %35, %39 ], [ %35, %36 ], [ %35, %34 ]
  %54 = getelementptr i8, ptr %0, i64 504
  %.val.i = load ptr, ptr %54, align 8, !tbaa !27
  %.not.i.i = icmp eq ptr %.val.i, null
  br i1 %.not.i.i, label %Wlc_AbcUpdateNtk.exit, label %55

55:                                               ; preds = %53
  tail call void @Wlc_NtkFree(ptr noundef nonnull %.val.i) #17
  br label %Wlc_AbcUpdateNtk.exit

Wlc_AbcUpdateNtk.exit:                            ; preds = %53, %55
  store ptr %.041, ptr %54, align 8, !tbaa !27
  br label %61

56:                                               ; preds = %4
  tail call void (i32, ptr, ...) @Abc_Print(i32 noundef -2, ptr noundef nonnull @.str.38)
  tail call void (i32, ptr, ...) @Abc_Print(i32 noundef -2, ptr noundef nonnull @.str.39)
  %.not55 = icmp eq i32 %.039.ph, 0
  %57 = select i1 %.not55, ptr @.str.42, ptr @.str.41
  tail call void (i32, ptr, ...) @Abc_Print(i32 noundef -2, ptr noundef nonnull @.str.40, ptr noundef nonnull %57)
  %.not56 = icmp eq i32 %.037.ph77, 0
  %58 = select i1 %.not56, ptr @.str.42, ptr @.str.41
  tail call void (i32, ptr, ...) @Abc_Print(i32 noundef -2, ptr noundef nonnull @.str.43, ptr noundef nonnull %58)
  %.not57 = icmp eq i32 %.035.ph81, 0
  %59 = select i1 %.not57, ptr @.str.42, ptr @.str.41
  tail call void (i32, ptr, ...) @Abc_Print(i32 noundef -2, ptr noundef nonnull @.str.44, ptr noundef nonnull %59)
  %.not58 = icmp eq i32 %.0, 0
  %60 = select i1 %.not58, ptr @.str.42, ptr @.str.41
  tail call void (i32, ptr, ...) @Abc_Print(i32 noundef -2, ptr noundef nonnull @.str.45, ptr noundef nonnull %60)
  tail call void (i32, ptr, ...) @Abc_Print(i32 noundef -2, ptr noundef nonnull @.str.46)
  br label %61

61:                                               ; preds = %56, %Wlc_AbcUpdateNtk.exit, %52, %27, %17
  %.034 = phi i32 [ 1, %56 ], [ 0, %17 ], [ 0, %27 ], [ 0, %52 ], [ 0, %Wlc_AbcUpdateNtk.exit ]
  ret i32 %.034
}